; Function Attrs: mustprogress uwtable
define hidden i64 @_ZNK7nanogui11PopupButton14preferred_sizeEP10NVGcontext(ptr noundef nonnull align 8 dereferenceable(324) %0, ptr noundef %1) unnamed_addr #0 align 2 {
_ZN7nanoguiplERKNS_5ArrayIiLm2EEES3_.exit.critedge:
  %2 = tail call i64 @_ZNK7nanogui6Button14preferred_sizeEP10NVGcontext(ptr noundef nonnull align 8 dereferenceable(312) %0, ptr noundef %1)
  %.sroa.26.0.extract.shift = and i64 %2, -4294967296
  %3 = add i64 %2, 15
  %.sroa.010.0.insert.ext = and i64 %3, 4294967295
  %.sroa.010.0.insert.insert = or disjoint i64 %.sroa.010.0.insert.ext, %.sroa.26.0.extract.shift
  ret i64 %.sroa.010.0.insert.insert
}